target datalayout = "e-m:e-p270:32:32-p271:32:32-p272:64:64-i64:64-i128:128-f80:128-n8:16:32:64-S128"
target triple = "x86_64-pc-linux-gnu"

%struct.sentinelRedisInstance = type { i32, ptr, ptr, i64, ptr, ptr, i64, i64, i64, i64, i64, i64, i64, i64, i64, ptr, i32, i64, i64, ptr, ptr, i32, i32, ptr, ptr, i64, i32, i32, i64, ptr, ptr, i32, i32, i64, ptr, i64, i64, i32, i64, i64, i64, i64, ptr, ptr, ptr, ptr }
%struct.instanceLink = type { i32, i32, i32, ptr, ptr, i64, i64, i64, i64, i64, i64, i64, i64 }
%struct.redisAsyncContext = type { %struct.redisContext, i32, ptr, ptr, ptr, %struct.anon.2, ptr, ptr, ptr, %struct.redisCallbackList, ptr, i64, %struct.anon.3, ptr }
%struct.redisContext = type { ptr, i32, [128 x i8], i32, i32, ptr, ptr, i32, ptr, ptr, %struct.anon.0, %struct.anon.1, ptr, i64, ptr, ptr, ptr, ptr }
%struct.anon.0 = type { ptr, ptr, i32 }
%struct.anon.1 = type { ptr }
%struct.anon.2 = type { ptr, ptr, ptr, ptr, ptr, ptr, ptr }
%struct.redisCallbackList = type { ptr, ptr }
%struct.anon.3 = type { %struct.redisCallbackList, ptr, ptr, i32 }
%struct.redisCallback = type { ptr, ptr, i32, i32, ptr }

@.str.21 = private unnamed_addr constant [11 x i8] c"sentinel.c\00", align 1
@.str.41 = private unnamed_addr constant [19 x i8] c"link->refcount > 0\00", align 1

; Function Attrs: nounwind uwtable
define dso_local void @instanceLinkCloseConnection(ptr noundef %0, ptr noundef %1) #0 {
  %3 = alloca ptr, align 8
  %4 = alloca ptr, align 8
  store ptr %0, ptr %3, align 8, !tbaa !129
  store ptr %1, ptr %4, align 8, !tbaa !145
  %5 = load ptr, ptr %4, align 8, !tbaa !145
  %6 = icmp eq ptr %5, null
  br i1 %6, label %7, label %8

7:                                                ; preds = %2
  br label %34

8:                                                ; preds = %2
  %9 = load ptr, ptr %3, align 8, !tbaa !129
  %10 = getelementptr inbounds nuw %struct.instanceLink, ptr %9, i32 0, i32 3
  %11 = load ptr, ptr %10, align 8, !tbaa !135
  %12 = load ptr, ptr %4, align 8, !tbaa !145
  %13 = icmp eq ptr %11, %12
  br i1 %13, label %14, label %19

14:                                               ; preds = %8
  %15 = load ptr, ptr %3, align 8, !tbaa !129
  %16 = getelementptr inbounds nuw %struct.instanceLink, ptr %15, i32 0, i32 3
  store ptr null, ptr %16, align 8, !tbaa !135
  %17 = load ptr, ptr %3, align 8, !tbaa !129
  %18 = getelementptr inbounds nuw %struct.instanceLink, ptr %17, i32 0, i32 2
  store i32 0, ptr %18, align 8, !tbaa !134
  br label %19

19:                                               ; preds = %14, %8
  %20 = load ptr, ptr %3, align 8, !tbaa !129
  %21 = getelementptr inbounds nuw %struct.instanceLink, ptr %20, i32 0, i32 4
  %22 = load ptr, ptr %21, align 8, !tbaa !136
  %23 = load ptr, ptr %4, align 8, !tbaa !145
  %24 = icmp eq ptr %22, %23
  br i1 %24, label %25, label %28

25:                                               ; preds = %19
  %26 = load ptr, ptr %3, align 8, !tbaa !129
  %27 = getelementptr inbounds nuw %struct.instanceLink, ptr %26, i32 0, i32 4
  store ptr null, ptr %27, align 8, !tbaa !136
  br label %28

28:                                               ; preds = %25, %19
  %29 = load ptr, ptr %4, align 8, !tbaa !145
  %30 = getelementptr inbounds nuw %struct.redisAsyncContext, ptr %29, i32 0, i32 3
  store ptr null, ptr %30, align 8, !tbaa !146
  %31 = load ptr, ptr %3, align 8, !tbaa !129
  %32 = getelementptr inbounds nuw %struct.instanceLink, ptr %31, i32 0, i32 1
  store i32 1, ptr %32, align 4, !tbaa !133
  %33 = load ptr, ptr %4, align 8, !tbaa !145
  call void @redisAsyncFree(ptr noundef %33)
  br label %34

34:                                               ; preds = %28, %7
  ret void
}

; Function Attrs: nounwind uwtable
define dso_local ptr @releaseInstanceLink(ptr noundef %0, ptr noundef %1) #0 {
  %3 = alloca ptr, align 8
  %4 = alloca ptr, align 8
  %5 = alloca ptr, align 8
  %6 = alloca ptr, align 8
  %7 = alloca ptr, align 8
  store ptr %0, ptr %4, align 8, !tbaa !129
  store ptr %1, ptr %5, align 8, !tbaa !11
  %8 = load ptr, ptr %4, align 8, !tbaa !129
  %9 = getelementptr inbounds nuw %struct.instanceLink, ptr %8, i32 0, i32 0
  %10 = load i32, ptr %9, align 8, !tbaa !130
  %11 = icmp sgt i32 %10, 0
  %12 = xor i1 %11, true
  %13 = xor i1 %12, true
  %14 = zext i1 %13 to i32
  %15 = sext i32 %14 to i64
  %16 = call i64 @llvm.expect.i64(i64 %15, i64 1)
  %17 = icmp ne i64 %16, 0
  br i1 %17, label %18, label %19

18:                                               ; preds = %2
  br label %21

19:                                               ; preds = %2
  call void @_serverAssert(ptr noundef @.str.41, ptr noundef @.str.21, i32 noundef 1044)
  call void @abort() #15
  unreachable

20:                                               ; No predecessors!
  br label %21

21:                                               ; preds = %20, %18
  %22 = load ptr, ptr %4, align 8, !tbaa !129
  %23 = getelementptr inbounds nuw %struct.instanceLink, ptr %22, i32 0, i32 0
  %24 = load i32, ptr %23, align 8, !tbaa !130
  %25 = add nsw i32 %24, -1
  store i32 %25, ptr %23, align 8, !tbaa !130
  %26 = load ptr, ptr %4, align 8, !tbaa !129
  %27 = getelementptr inbounds nuw %struct.instanceLink, ptr %26, i32 0, i32 0
  %28 = load i32, ptr %27, align 8, !tbaa !130
  %29 = icmp ne i32 %28, 0
  br i1 %29, label %30, label %69

30:                                               ; preds = %21
  %31 = load ptr, ptr %5, align 8, !tbaa !11
  %32 = icmp ne ptr %31, null
  br i1 %32, label %33, label %67

33:                                               ; preds = %30
  %34 = load ptr, ptr %5, align 8, !tbaa !11
  %35 = getelementptr inbounds nuw %struct.sentinelRedisInstance, ptr %34, i32 0, i32 5
  %36 = load ptr, ptr %35, align 8, !tbaa !22
  %37 = getelementptr inbounds nuw %struct.instanceLink, ptr %36, i32 0, i32 3
  %38 = load ptr, ptr %37, align 8, !tbaa !135
  %39 = icmp ne ptr %38, null
  br i1 %39, label %40, label %67

40:                                               ; preds = %33
  call void @llvm.lifetime.start.p0(i64 8, ptr %6) #16
  call void @llvm.lifetime.start.p0(i64 8, ptr %7) #16
  %41 = load ptr, ptr %4, align 8, !tbaa !129
  %42 = getelementptr inbounds nuw %struct.instanceLink, ptr %41, i32 0, i32 3
  %43 = load ptr, ptr %42, align 8, !tbaa !135
  %44 = getelementptr inbounds nuw %struct.redisAsyncContext, ptr %43, i32 0, i32 9
  store ptr %44, ptr %7, align 8, !tbaa !159
  %45 = load ptr, ptr %7, align 8, !tbaa !159
  %46 = getelementptr inbounds nuw %struct.redisCallbackList, ptr %45, i32 0, i32 0
  %47 = load ptr, ptr %46, align 8, !tbaa !161
  store ptr %47, ptr %6, align 8, !tbaa !162
  br label %48

48:                                               ; preds = %62, %40
  %49 = load ptr, ptr %6, align 8, !tbaa !162
  %50 = icmp ne ptr %49, null
  br i1 %50, label %51, label %66

51:                                               ; preds = %48
  %52 = load ptr, ptr %6, align 8, !tbaa !162
  %53 = getelementptr inbounds nuw %struct.redisCallback, ptr %52, i32 0, i32 4
  %54 = load ptr, ptr %53, align 8, !tbaa !163
  %55 = load ptr, ptr %5, align 8, !tbaa !11
  %56 = icmp eq ptr %54, %55
  br i1 %56, label %57, label %62

57:                                               ; preds = %51
  %58 = load ptr, ptr %6, align 8, !tbaa !162
  %59 = getelementptr inbounds nuw %struct.redisCallback, ptr %58, i32 0, i32 1
  store ptr @sentinelDiscardReplyCallback, ptr %59, align 8, !tbaa !165
  %60 = load ptr, ptr %6, align 8, !tbaa !162
  %61 = getelementptr inbounds nuw %struct.redisCallback, ptr %60, i32 0, i32 4
  store ptr null, ptr %61, align 8, !tbaa !163
  br label %62

62:                                               ; preds = %57, %51
  %63 = load ptr, ptr %6, align 8, !tbaa !162
  %64 = getelementptr inbounds nuw %struct.redisCallback, ptr %63, i32 0, i32 0
  %65 = load ptr, ptr %64, align 8, !tbaa !166
  store ptr %65, ptr %6, align 8, !tbaa !162
  br label %48, !llvm.loop !167

66:                                               ; preds = %48
  call void @llvm.lifetime.end.p0(i64 8, ptr %7) #16
  call void @llvm.lifetime.end.p0(i64 8, ptr %6) #16
  br label %67

67:                                               ; preds = %66, %33, %30
  %68 = load ptr, ptr %4, align 8, !tbaa !129
  store ptr %68, ptr %3, align 8
  br label %79

69:                                               ; preds = %21
  %70 = load ptr, ptr %4, align 8, !tbaa !129
  %71 = load ptr, ptr %4, align 8, !tbaa !129
  %72 = getelementptr inbounds nuw %struct.instanceLink, ptr %71, i32 0, i32 3
  %73 = load ptr, ptr %72, align 8, !tbaa !135
  call void @instanceLinkCloseConnection(ptr noundef %70, ptr noundef %73)
  %74 = load ptr, ptr %4, align 8, !tbaa !129
  %75 = load ptr, ptr %4, align 8, !tbaa !129
  %76 = getelementptr inbounds nuw %struct.instanceLink, ptr %75, i32 0, i32 4
  %77 = load ptr, ptr %76, align 8, !tbaa !136
  call void @instanceLinkCloseConnection(ptr noundef %74, ptr noundef %77)
  %78 = load ptr, ptr %4, align 8, !tbaa !129
  call void @zfree(ptr noundef %78)
  store ptr null, ptr %3, align 8
  br label %79

79:                                               ; preds = %69, %67
  %80 = load ptr, ptr %3, align 8
  ret ptr %80
}