; Function Attrs: nounwind uwtable
define dso_local noundef ptr @releaseInstanceLink(ptr noundef %0, ptr noundef readonly captures(address) %1) local_unnamed_addr #0 {
  %3 = load i32, ptr %0, align 8, !tbaa !114
  %4 = icmp sgt i32 %3, 0
  br i1 %4, label %6, label %5, !prof !103

5:                                                ; preds = %2
  tail call void @_serverAssert(ptr noundef nonnull @.str.41, ptr noundef nonnull @.str.21, i32 noundef 1044) #30
  tail call void @abort() #35
  unreachable

6:                                                ; preds = %2
  %7 = add nsw i32 %3, -1
  store i32 %7, ptr %0, align 8, !tbaa !114
  %.not = icmp eq i32 %7, 0
  br i1 %.not, label %24, label %8

8:                                                ; preds = %6
  %.not23 = icmp eq ptr %1, null
  br i1 %.not23, label %.loopexit, label %9

9:                                                ; preds = %8
  %10 = getelementptr inbounds nuw i8, ptr %1, i64 40
  %11 = load ptr, ptr %10, align 8, !tbaa !19
  %12 = getelementptr inbounds nuw i8, ptr %11, i64 16
  %13 = load ptr, ptr %12, align 8, !tbaa !124
  %.not24 = icmp eq ptr %13, null
  br i1 %.not24, label %.loopexit, label %14

14:                                               ; preds = %9
  %15 = getelementptr inbounds nuw i8, ptr %0, i64 16
  %16 = load ptr, ptr %15, align 8, !tbaa !124
  %17 = getelementptr inbounds nuw i8, ptr %16, i64 384
  %.02027 = load ptr, ptr %17, align 8, !tbaa !139
  %.not2528 = icmp eq ptr %.02027, null
  br i1 %.not2528, label %.loopexit, label %.lr.ph

.lr.ph:                                           ; preds = %14, %23
  %.02029 = phi ptr [ %.020, %23 ], [ %.02027, %14 ]
  %18 = getelementptr inbounds nuw i8, ptr %.02029, i64 24
  %19 = load ptr, ptr %18, align 8, !tbaa !140
  %20 = icmp eq ptr %19, %1
  br i1 %20, label %21, label %23

21:                                               ; preds = %.lr.ph
  %22 = getelementptr inbounds nuw i8, ptr %.02029, i64 8
  store ptr @sentinelDiscardReplyCallback, ptr %22, align 8, !tbaa !142
  store ptr null, ptr %18, align 8, !tbaa !140
  br label %23

23:                                               ; preds = %21, %.lr.ph
  %.020 = load ptr, ptr %.02029, align 8, !tbaa !139
  %.not25 = icmp eq ptr %.020, null
  br i1 %.not25, label %.loopexit, label %.lr.ph, !llvm.loop !143

24:                                               ; preds = %6
  %25 = getelementptr inbounds nuw i8, ptr %0, i64 16
  %26 = load ptr, ptr %25, align 8, !tbaa !124
  %27 = icmp eq ptr %26, null
  br i1 %27, label %instanceLinkCloseConnection.exit, label %28

28:                                               ; preds = %24
  store ptr null, ptr %25, align 8, !tbaa !124
  %29 = getelementptr inbounds nuw i8, ptr %0, i64 8
  store i32 0, ptr %29, align 8, !tbaa !118
  %30 = getelementptr inbounds nuw i8, ptr %0, i64 24
  %31 = load ptr, ptr %30, align 8, !tbaa !125
  %32 = icmp eq ptr %31, %26
  br i1 %32, label %33, label %34

33:                                               ; preds = %28
  store ptr null, ptr %30, align 8, !tbaa !125
  br label %34

34:                                               ; preds = %33, %28
  %35 = getelementptr inbounds nuw i8, ptr %26, i64 288
  store ptr null, ptr %35, align 8, !tbaa !126
  %36 = getelementptr inbounds nuw i8, ptr %0, i64 4
  store i32 1, ptr %36, align 4, !tbaa !117
  tail call void @redisAsyncFree(ptr noundef nonnull %26) #30
  br label %instanceLinkCloseConnection.exit

instanceLinkCloseConnection.exit:                 ; preds = %24, %34
  %37 = getelementptr inbounds nuw i8, ptr %0, i64 24
  %38 = load ptr, ptr %37, align 8, !tbaa !125
  %39 = icmp eq ptr %38, null
  br i1 %39, label %instanceLinkCloseConnection.exit26, label %40

40:                                               ; preds = %instanceLinkCloseConnection.exit
  %41 = load ptr, ptr %25, align 8, !tbaa !124
  %42 = icmp eq ptr %41, %38
  br i1 %42, label %43, label %45

43:                                               ; preds = %40
  store ptr null, ptr %25, align 8, !tbaa !124
  %44 = getelementptr inbounds nuw i8, ptr %0, i64 8
  store i32 0, ptr %44, align 8, !tbaa !118
  br label %45

45:                                               ; preds = %43, %40
  store ptr null, ptr %37, align 8, !tbaa !125
  %46 = getelementptr inbounds nuw i8, ptr %38, i64 288
  store ptr null, ptr %46, align 8, !tbaa !126
  %47 = getelementptr inbounds nuw i8, ptr %0, i64 4
  store i32 1, ptr %47, align 4, !tbaa !117
  tail call void @redisAsyncFree(ptr noundef nonnull %38) #30
  br label %instanceLinkCloseConnection.exit26

instanceLinkCloseConnection.exit26:               ; preds = %instanceLinkCloseConnection.exit, %45
  tail call void @zfree(ptr noundef nonnull %0) #30
  br label %.loopexit

.loopexit:                                        ; preds = %23, %14, %8, %9, %instanceLinkCloseConnection.exit26
  %.0 = phi ptr [ null, %instanceLinkCloseConnection.exit26 ], [ %0, %9 ], [ %0, %8 ], [ %0, %14 ], [ %0, %23 ]
  ret ptr %.0
}